target datalayout = "e-m:e-p270:32:32-p271:32:32-p272:64:64-i64:64-i128:128-f80:128-n8:16:32:64-S128"
target triple = "x86_64-pc-linux-gnu"

%class.JfrNotifyClosure = type { %class.ThreadClosure }
%class.ThreadClosure = type { ptr }
%class.JfrThreadIterator = type { [8 x i8], %class.JfrJavaThreadIteratorAdapter }
%class.JfrJavaThreadIteratorAdapter = type <{ %class.ThreadsListHandle, %"class.ThreadsList::Iterator", %"class.ThreadsList::Iterator", i8, [7 x i8] }>
%class.ThreadsListHandle = type { %class.SafeThreadsListPtr, %class.elapsedTimer }
%class.SafeThreadsListPtr = type <{ ptr, ptr, ptr, i8, i8, [6 x i8] }>
%class.elapsedTimer = type <{ i64, i64, i8, [7 x i8] }>
%"class.ThreadsList::Iterator" = type { ptr }

@_ZTV16JfrNotifyClosure = linkonce_odr hidden unnamed_addr constant { [3 x ptr] } { [3 x ptr] [ptr null, ptr null, ptr @_ZN16JfrNotifyClosure9do_threadEP6Thread] }, comdat, align 8
@_ZTV13ThreadClosure = linkonce_odr hidden unnamed_addr constant { [3 x ptr] } { [3 x ptr] [ptr null, ptr null, ptr @__cxa_pure_virtual] }, comdat, align 8

; Function Attrs: mustprogress nounwind uwtable
define linkonce_odr hidden void @_ZN28JfrJavaThreadIteratorAdapterD2Ev(ptr noundef nonnull align 8 dereferenceable(73) %0) unnamed_addr #1 comdat align 2 {
  %2 = alloca ptr, align 8
  store ptr %0, ptr %2, align 8
  %3 = load ptr, ptr %2, align 8
  %4 = getelementptr inbounds %class.JfrJavaThreadIteratorAdapter, ptr %3, i32 0, i32 0
  call void @_ZN17ThreadsListHandleD1Ev(ptr noundef nonnull align 8 dereferenceable(56) %4) #4
  ret void
}

; Function Attrs: mustprogress nounwind uwtable
define linkonce_odr hidden noundef ptr @_ZN10JavaThread4castEP6Thread(ptr noundef %0) #1 comdat align 2 {
  %2 = alloca ptr, align 8
  store ptr %0, ptr %2, align 8
  %3 = load ptr, ptr %2, align 8
  ret ptr %3
}

; Function Attrs: mustprogress nounwind uwtable
define linkonce_odr hidden void @_ZN13ThreadClosureC2Ev(ptr noundef nonnull align 8 dereferenceable(8) %0) unnamed_addr #1 comdat align 2 {
  %2 = alloca ptr, align 8
  store ptr %0, ptr %2, align 8
  %3 = load ptr, ptr %2, align 8
  store ptr getelementptr inbounds inrange(-16, 8) ({ [3 x ptr] }, ptr @_ZTV13ThreadClosure, i32 0, i32 0, i32 2), ptr %3, align 8
  ret void
}

; Function Attrs: mustprogress nounwind uwtable
define linkonce_odr hidden void @_ZN17JfrThreadIteratorI28JfrJavaThreadIteratorAdapter8StackObjED2Ev(ptr noundef nonnull align 8 dereferenceable(88) %0) unnamed_addr #1 comdat align 2 {
  %2 = alloca ptr, align 8
  store ptr %0, ptr %2, align 8
  %3 = load ptr, ptr %2, align 8
  %4 = getelementptr inbounds %class.JfrThreadIterator, ptr %3, i32 0, i32 1
  call void @_ZN28JfrJavaThreadIteratorAdapterD2Ev(ptr noundef nonnull align 8 dereferenceable(73) %4) #4
  ret void
}

; Function Attrs: mustprogress nounwind uwtable
define linkonce_odr hidden void @_ZN16JfrNotifyClosure9do_threadEP6Thread(ptr noundef nonnull align 8 dereferenceable(8) %0, ptr noundef %1) unnamed_addr #1 comdat align 2 {
  %3 = alloca ptr, align 8
  %4 = alloca ptr, align 8
  store ptr %0, ptr %3, align 8
  store ptr %1, ptr %4, align 8
  %5 = load ptr, ptr %4, align 8
  %6 = call noundef ptr @_ZN10JavaThread4castEP6Thread(ptr noundef %5)
  call void @_ZN18JfrJavaEventWriter6notifyEP10JavaThread(ptr noundef %6)
  ret void
}

; Function Attrs: mustprogress nounwind uwtable
define linkonce_odr hidden noundef ptr @_ZN17JfrThreadIteratorI28JfrJavaThreadIteratorAdapter8StackObjE4nextEv(ptr noundef nonnull align 8 dereferenceable(88) %0) #1 comdat align 2 {
  %2 = alloca ptr, align 8
  store ptr %0, ptr %2, align 8
  %3 = load ptr, ptr %2, align 8
  %4 = getelementptr inbounds %class.JfrThreadIterator, ptr %3, i32 0, i32 1
  %5 = call noundef ptr @_ZN28JfrJavaThreadIteratorAdapter4nextEv(ptr noundef nonnull align 8 dereferenceable(73) %4)
  ret ptr %5
}

; Function Attrs: mustprogress nounwind uwtable
define linkonce_odr hidden noundef zeroext i1 @_ZNK17JfrThreadIteratorI28JfrJavaThreadIteratorAdapter8StackObjE8has_nextEv(ptr noundef nonnull align 8 dereferenceable(88) %0) #1 comdat align 2 {
  %2 = alloca ptr, align 8
  store ptr %0, ptr %2, align 8
  %3 = load ptr, ptr %2, align 8
  %4 = getelementptr inbounds %class.JfrThreadIterator, ptr %3, i32 0, i32 1
  %5 = call noundef zeroext i1 @_ZNK28JfrJavaThreadIteratorAdapter8has_nextEv(ptr noundef nonnull align 8 dereferenceable(73) %4)
  ret i1 %5
}

; Function Attrs: mustprogress nounwind uwtable
define linkonce_odr hidden void @_ZN17JfrThreadIteratorI28JfrJavaThreadIteratorAdapter8StackObjEC2Eb(ptr noundef nonnull align 8 dereferenceable(88) %0, i1 noundef zeroext %1) unnamed_addr #1 comdat align 2 {
  %3 = alloca ptr, align 8
  %4 = alloca i8, align 1
  store ptr %0, ptr %3, align 8
  %5 = zext i1 %1 to i8
  store i8 %5, ptr %4, align 1
  %6 = load ptr, ptr %3, align 8
  %7 = getelementptr inbounds %class.JfrThreadIterator, ptr %6, i32 0, i32 1
  %8 = load i8, ptr %4, align 1
  %9 = trunc i8 %8 to i1
  call void @_ZN28JfrJavaThreadIteratorAdapterC1Eb(ptr noundef nonnull align 8 dereferenceable(73) %7, i1 noundef zeroext %9)
  ret void
}

; Function Attrs: mustprogress nounwind uwtable
define linkonce_odr hidden void @_ZN16JfrNotifyClosureC2Ev(ptr noundef nonnull align 8 dereferenceable(8) %0) unnamed_addr #1 comdat align 2 {
  %2 = alloca ptr, align 8
  store ptr %0, ptr %2, align 8
  %3 = load ptr, ptr %2, align 8
  call void @_ZN13ThreadClosureC2Ev(ptr noundef nonnull align 8 dereferenceable(8) %3) #4
  store ptr getelementptr inbounds inrange(-16, 8) ({ [3 x ptr] }, ptr @_ZTV16JfrNotifyClosure, i32 0, i32 0, i32 2), ptr %3, align 8
  ret void
}

; Function Attrs: mustprogress nounwind uwtable
define hidden void @_ZN20JfrCheckpointManager14notify_threadsEv(ptr noundef nonnull align 8 dereferenceable(32) %0) #1 align 2 {
  %2 = alloca ptr, align 8
  %3 = alloca %class.JfrNotifyClosure, align 8
  %4 = alloca %class.JfrThreadIterator, align 8
  store ptr %0, ptr %2, align 8
  call void @_ZN16JfrNotifyClosureC2Ev(ptr noundef nonnull align 8 dereferenceable(8) %3) #4
  call void @_ZN17JfrThreadIteratorI28JfrJavaThreadIteratorAdapter8StackObjEC2Eb(ptr noundef nonnull align 8 dereferenceable(88) %4, i1 noundef zeroext true)
  br label %5

5:                                                ; preds = %7, %1
  %6 = call noundef zeroext i1 @_ZNK17JfrThreadIteratorI28JfrJavaThreadIteratorAdapter8StackObjE8has_nextEv(ptr noundef nonnull align 8 dereferenceable(88) %4)
  br i1 %6, label %7, label %9

7:                                                ; preds = %5
  %8 = call noundef ptr @_ZN17JfrThreadIteratorI28JfrJavaThreadIteratorAdapter8StackObjE4nextEv(ptr noundef nonnull align 8 dereferenceable(88) %4)
  call void @_ZN16JfrNotifyClosure9do_threadEP6Thread(ptr noundef nonnull align 8 dereferenceable(8) %3, ptr noundef %8)
  br label %5, !llvm.loop !9

9:                                                ; preds = %5
  call void @_ZN17JfrThreadIteratorI28JfrJavaThreadIteratorAdapter8StackObjED2Ev(ptr noundef nonnull align 8 dereferenceable(88) %4) #4
  ret void
}