; Function Attrs: mustprogress nounwind uwtable
define hidden void @_ZN20JfrCheckpointManager14notify_threadsEv(ptr nocapture noundef nonnull readnone align 8 dereferenceable(32) %0) local_unnamed_addr #1 align 2 {
  %2 = alloca %class.JfrThreadIterator, align 8
  %3 = getelementptr inbounds i8, ptr %2, i64 8
  call void @_ZN28JfrJavaThreadIteratorAdapterC1Eb(ptr noundef nonnull align 8 dereferenceable(73) %3, i1 noundef zeroext true) #20
  %4 = call noundef zeroext i1 @_ZNK28JfrJavaThreadIteratorAdapter8has_nextEv(ptr noundef nonnull align 8 dereferenceable(73) %3) #20
  br i1 %4, label %.lr.ph, label %._crit_edge

.lr.ph:                                           ; preds = %1, %.lr.ph
  %5 = call noundef ptr @_ZN28JfrJavaThreadIteratorAdapter4nextEv(ptr noundef nonnull align 8 dereferenceable(73) %3) #20
  call void @_ZN18JfrJavaEventWriter6notifyEP10JavaThread(ptr noundef %5) #20
  %6 = call noundef zeroext i1 @_ZNK28JfrJavaThreadIteratorAdapter8has_nextEv(ptr noundef nonnull align 8 dereferenceable(73) %3) #20
  br i1 %6, label %.lr.ph, label %._crit_edge, !llvm.loop !25

._crit_edge:                                      ; preds = %.lr.ph, %1
  call void @_ZN17ThreadsListHandleD1Ev(ptr noundef nonnull align 8 dereferenceable(56) %3) #20
  ret void
}